(dp1
S'2012-08-28'
p2
(dp3
S'Saybrook'
p4
(dp5
S'Lunch'
p6
(lp7
S'Cream Of Roasted Tomato Soup'
p8
aS'Chicken Noodle Soup'
p9
aS'Braised Lentils With Kale'
p10
aS'Crunchy Pork Chop'
p11
aS'Broccoli and Cheddar Quiche'
p12
aS'Grilled Cheese and Tomato On Wheat'
p13
aS'Pita with Chickpea, Spinach and Cukes'
p14
aS'Shoestring French Fries'
p15
aS'Creamy Coleslaw'
p16
aS'Oatmeal Cranberry Cookie with Organic Ingredients'
p17
asS'Dinner'
p18
(lp19
S'Rosemary Lemon Whole Roast Chicken'
p20
aS'Penne With Herbed Zucchini'
p21
aS'Roasted Sweet Potatoes With Lime'
p22
aS'Garlic, Rosemary, Broccoli and Mushrooms'
p23
aS'Peach and Tomato Salad'
p24
aS'Cucumber Fennel and Watermelon Salad'
p25
assS'Marigolds'
p26
(dp27
S'Lunch'
p28
(lp29
S'Vegetable Beef Soup'
p30
aS'Buffalo Breaded Chicken Sandwich'
p31
aS'The Greek Wrap'
p32
aS'Tomato Quiche'
p33
aS'Stir Fried Turkey and Snap Peas'
p34
aS'Broccoli Quiche'
p35
aS'4 Cheese  Pizza'
p36
aS'Chicken Pesto Sandwich'
p37
aS'Montana Panini'
p38
aS'Rice With Scallions'
p39
aS'Roasted Fresh Asparagus Lemon and Herbs'
p40
asS'Dinner'
p41
(lp42
S'Vegetable Beef Soup'
p43
aS'Eggplant Rollatini'
p44
aS'Beer-Braised Brisket With Onions'
p45
aS'Broiled Salmon Fillet'
p46
aS'Mashed Fresh Potatoes'
p47
aS"Chef's Choice Hot Vegetable"
p48
assS'Silliman'
p49
(dp50
S'Lunch'
p51
(lp52
S'Cream Of Roasted Tomato Soup'
p53
aS'Chicken Noodle Soup'
p54
aS'Braised Lentils With Kale'
p55
aS'Crunchy Pork Chop'
p56
aS'Broccoli and Cheddar Quiche'
p57
aS'Grilled Cheese and Tomato On Wheat'
p58
aS'Pita with Chickpea, Spinach and Cukes'
p59
aS'Shoestring French Fries'
p60
aS'Creamy Coleslaw'
p61
aS'Oatmeal Cranberry Cookie with Organic Ingredients'
p62
asS'Dinner'
p63
(lp64
S'Rosemary Lemon Whole Roast Chicken'
p65
aS'Penne With Herbed Zucchini'
p66
aS'Roasted Sweet Potatoes With Lime'
p67
aS'Garlic, Rosemary, Broccoli and Mushrooms'
p68
aS'Peach and Tomato Salad'
p69
aS'Cucumber Fennel and Watermelon Salad'
p70
assS'Hall of Graduate Studies'
p71
(dp72
S'Lunch'
p73
(lp74
S'Chicken Tortilla Soup'
p75
aS'Black Bean and Rice Soup'
p76
aS'Leek and Potato Galette'
p77
aS'Hamburger'
p78
aS'Sausage Jambalaya'
p79
aS'Dilled Tuna Salad'
p80
aS'Brown Rice with Scallions'
p81
aS'Sweet Potato Fries'
p82
aS'Fresh Zucchini and Yellow Squash'
p83
aS'Oatmeal Cranberry Cookie with Organic Ingredients'
p84
asS'Dinner'
p85
(lp86
S'Stir Fried Turkey and Snap Peas'
p87
aS'Penne'
p88
aS'Grilled Pork Chop'
p89
aS'Basmati Rice'
p90
aS'Sauteed Swiss Chard'
p91
aS'Apple Crumb Pie'
p92
assS'Morse'
p93
(dp94
S'Lunch'
p95
(lp96
S'Cream Of Roasted Tomato Soup'
p97
aS'Chicken Noodle Soup'
p98
aS'French Grilled Cheese Sandwich'
p99
aS'Monte Cristo Sandwich'
p100
aS'Broccoli Pizza'
p101
aS'Pepperoni Cheese Pizza'
p102
aS'Cheese Pizza'
p103
aS'Gemelli Pasta'
p104
aS'Pita with Chickpea, Spinach and Cukes'
p105
aS'Shoestring French Fries'
p106
aS'Creamy Coleslaw'
p107
aS'Oatmeal Cranberry Cookie with Organic Ingredients'
p108
asS'Dinner'
p109
(lp110
S'Rosemary Lemon Whole Roast Chicken'
p111
aS'Penne With Herbed Zucchini'
p112
aS'Roasted Sweet Potatoes With Lime'
p113
aS'Garlic, Rosemary, Broccoli and Mushrooms'
p114
aS'Peach and Tomato Salad'
p115
aS'Cucumber Fennel and Watermelon Salad'
p116
assS'Calhoun'
p117
(dp118
S'Lunch'
p119
(lp120
S'Cream Of Roasted Tomato Soup'
p121
aS'Chicken Noodle Soup'
p122
aS'Braised Lentils With Kale'
p123
aS'Crunchy Pork Chop'
p124
aS'Broccoli and Cheddar Quiche'
p125
aS'Grilled Cheese and Tomato On Wheat'
p126
aS'Pita with Chickpea, Spinach and Cukes'
p127
aS'Shoestring French Fries'
p128
aS'Creamy Coleslaw'
p129
aS'Oatmeal Cranberry Cookie with Organic Ingredients'
p130
asS'Dinner'
p131
(lp132
S'Rosemary Lemon Whole Roast Chicken'
p133
aS'Penne With Herbed Zucchini'
p134
aS'Roasted Sweet Potatoes With Lime'
p135
aS'Garlic, Rosemary, Broccoli and Mushrooms'
p136
aS'Peach and Tomato Salad'
p137
aS'Cucumber Fennel and Watermelon Salad'
p138
assS'Commons'
p139
(dp140
S'Lunch'
p141
(lp142
S'Cream Of Roasted Tomato Soup'
p143
aS'Turkey and Wild Rice Soup'
p144
aS'Lime and Cilantro Carne Asada'
p145
aS'Quinoa Black Bean and Corn Pilaf'
p146
aS'Penne'
p147
aS'Turkey Quesadilla'
p148
aS'Grilled Frankfurter'
p149
aS'Pepperoni Pizza'
p150
aS'Cheese Pizza'
p151
aS'Broccoli and Tofu'
p152
aS'Shrimp Fried Rice'
p153
aS'Jasmine Rice'
p154
aS'Vegetable Curry'
p155
aS'Italian Deli Zep'
p156
aS'Refried Black Beans'
p157
aS'Spiced Roasted Local Carrots'
p158
aS'Creamy Coleslaw'
p159
aS'Chick Pea Salad'
p160
aS'Oatmeal Cranberry Cookie with Organic Ingredients'
p161
asS'Breakfast'
p162
(lp163
S'Cream Of Wheat'
p164
aS'Texas French Toast'
p165
aS'Cage-Free Scrambled Eggs'
p166
aS'Waffle Bar'
p167
aS'Zucchini Frittata'
p168
aS'Scrambled Egg Whites'
p169
aS'Shredded Potatoes'
p170
aS'Blueberry Oat Tea Bread'
p171
asS'Dinner'
p172
(lp173
S'3 Bean Chili'
p174
aS'BBQ Pulled Pork Sandwich'
p175
aS'Garden Burger'
p176
aS'Hamburger'
p177
aS'Roasted Chicken with Herb-Garlic Sauce'
p178
aS'Fresh Corn On The Cob'
p179
aS'Red Potato Salad Vinaigrette'
p180
aS'Coleslaw'
p181
aS'Assorted Bake Shop Cookies'
p182
assS'Stiles'
p183
(dp184
S'Lunch'
p185
(lp186
S'Cream Of Roasted Tomato Soup'
p187
aS'Chicken Noodle Soup'
p188
aS'French Grilled Cheese Sandwich'
p189
aS'Monte Cristo Sandwich'
p190
aS'Broccoli Pizza'
p191
aS'Pepperoni Cheese Pizza'
p192
aS'Cheese Pizza'
p193
aS'Gemelli Pasta'
p194
aS'Pita with Chickpea, Spinach and Cukes'
p195
aS'Shoestring French Fries'
p196
aS'Creamy Coleslaw'
p197
aS'Oatmeal Cranberry Cookie with Organic Ingredients'
p198
asS'Dinner'
p199
(lp200
S'Rosemary Lemon Whole Roast Chicken'
p201
aS'Penne With Herbed Zucchini'
p202
aS'Roasted Sweet Potatoes With Lime'
p203
aS'Garlic, Rosemary, Broccoli and Mushrooms'
p204
aS'Peach and Tomato Salad'
p205
aS'Cucumber Fennel and Watermelon Salad'
p206
assS'Branford'
p207
(dp208
S'Lunch'
p209
(lp210
S'Cream Of Roasted Tomato Soup'
p211
aS'Chicken Noodle Soup'
p212
aS'Braised Lentils With Kale'
p213
aS'Crunchy Pork Chop'
p214
aS'Broccoli and Cheddar Quiche'
p215
aS'Grilled Cheese and Tomato On Wheat'
p216
aS'Pita with Chickpea, Spinach and Cukes'
p217
aS'Shoestring French Fries'
p218
aS'Creamy Coleslaw'
p219
aS'Oatmeal Cranberry Cookie with Organic Ingredients'
p220
asS'Dinner'
p221
(lp222
S'Rosemary Lemon Whole Roast Chicken'
p223
aS'Penne With Herbed Zucchini'
p224
aS'Roasted Sweet Potatoes With Lime'
p225
aS'Garlic, Rosemary, Broccoli and Mushrooms'
p226
aS'Peach and Tomato Salad'
p227
aS'Cucumber Fennel and Watermelon Salad'
p228
assS'Pierson'
p229
(dp230
S'Lunch'
p231
(lp232
S'Cream Of Roasted Tomato Soup'
p233
aS'Chicken Noodle Soup'
p234
aS'Braised Lentils With Kale'
p235
aS'Crunchy Pork Chop'
p236
aS'Broccoli and Cheddar Quiche'
p237
aS'Grilled Cheese and Tomato On Wheat'
p238
aS'Pita with Chickpea, Spinach and Cukes'
p239
aS'Shoestring French Fries'
p240
aS'Creamy Coleslaw'
p241
aS'Oatmeal Cranberry Cookie with Organic Ingredients'
p242
asS'Dinner'
p243
(lp244
S'Rosemary Lemon Whole Roast Chicken'
p245
aS'Penne With Herbed Zucchini'
p246
aS'Roasted Sweet Potatoes With Lime'
p247
aS'Garlic, Rosemary, Broccoli and Mushrooms'
p248
aS'Peach and Tomato Salad'
p249
aS'Cucumber Fennel and Watermelon Salad'
p250
assS'Timothy Dwight'
p251
(dp252
S'Lunch'
p253
(lp254
S'Cream Of Roasted Tomato Soup'
p255
aS'Chicken Noodle Soup'
p256
aS'Braised Lentils With Kale'
p257
aS'Crunchy Pork Chop'
p258
aS'Broccoli and Cheddar Quiche'
p259
aS'Grilled Cheese and Tomato On Wheat'
p260
aS'Pita with Chickpea, Spinach and Cukes'
p261
aS'Shoestring French Fries'
p262
aS'Creamy Coleslaw'
p263
aS'Oatmeal Cranberry Cookie with Organic Ingredients'
p264
asS'Dinner'
p265
(lp266
S'Rosemary Lemon Whole Roast Chicken'
p267
aS'Penne With Herbed Zucchini'
p268
aS'Roasted Sweet Potatoes With Lime'
p269
aS'Garlic, Rosemary, Broccoli and Mushrooms'
p270
aS'Peach and Tomato Salad'
p271
aS'Cucumber Fennel and Watermelon Salad'
p272
assS'Berkeley'
p273
(dp274
S'Lunch'
p275
(lp276
S'Cream Of Roasted Tomato Soup'
p277
aS'Chicken Noodle Soup'
p278
aS'Braised Lentils With Kale'
p279
aS'Crunchy Pork Chop'
p280
aS'Broccoli and Cheddar Quiche'
p281
aS'Grilled Cheese and Tomato On Wheat'
p282
aS'Pita with Chickpea, Spinach and Cukes'
p283
aS'Shoestring French Fries'
p284
aS'Creamy Coleslaw'
p285
aS'Oatmeal Cranberry Cookie with Organic Ingredients'
p286
asS'Dinner'
p287
(lp288
S'Rosemary Lemon Whole Roast Chicken'
p289
aS'Penne With Herbed Zucchini'
p290
aS'Roasted Sweet Potatoes With Lime'
p291
aS'Garlic, Rosemary, Broccoli and Mushrooms'
p292
aS'Peach and Tomato Salad'
p293
aS'Cucumber Fennel and Watermelon Salad'
p294
assS'Trumbull'
p295
(dp296
S'Lunch'
p297
(lp298
S'Cream Of Roasted Tomato Soup'
p299
aS'Chicken Noodle Soup'
p300
aS'Braised Lentils With Kale'
p301
aS'Crunchy Pork Chop'
p302
aS'Broccoli and Cheddar Quiche'
p303
aS'Grilled Cheese and Tomato On Wheat'
p304
aS'Pita with Chickpea, Spinach and Cukes'
p305
aS'Shoestring French Fries'
p306
aS'Creamy Coleslaw'
p307
aS'Oatmeal Cranberry Cookie with Organic Ingredients'
p308
asS'Dinner'
p309
(lp310
S'Rosemary Lemon Whole Roast Chicken'
p311
aS'Penne With Herbed Zucchini'
p312
aS'Roasted Sweet Potatoes With Lime'
p313
aS'Garlic, Rosemary, Broccoli and Mushrooms'
p314
aS'Peach and Tomato Salad'
p315
aS'Cucumber Fennel and Watermelon Salad'
p316
assS'Davenport'
p317
(dp318
S'Lunch'
p319
(lp320
S'Cream Of Roasted Tomato Soup'
p321
aS'Chicken Noodle Soup'
p322
aS'Braised Lentils With Kale'
p323
aS'Crunchy Pork Chop'
p324
aS'Broccoli and Cheddar Quiche'
p325
aS'Grilled Cheese and Tomato On Wheat'
p326
aS'Pita with Chickpea, Spinach and Cukes'
p327
aS'Shoestring French Fries'
p328
aS'Creamy Coleslaw'
p329
aS'Oatmeal Cranberry Cookie with Organic Ingredients'
p330
asS'Dinner'
p331
(lp332
S'Rosemary Lemon Whole Roast Chicken'
p333
aS'Penne With Herbed Zucchini'
p334
aS'Roasted Sweet Potatoes With Lime'
p335
aS'Garlic, Rosemary, Broccoli and Mushrooms'
p336
aS'Peach and Tomato Salad'
p337
aS'Cucumber Fennel and Watermelon Salad'
p338
assS'Jonathan Edwards'
p339
(dp340
S'Lunch'
p341
(lp342
S'Cream Of Roasted Tomato Soup'
p343
aS'Chicken Noodle Soup'
p344
aS'Braised Lentils With Kale'
p345
aS'Crunchy Pork Chop'
p346
aS'Broccoli and Cheddar Quiche'
p347
aS'Grilled Cheese and Tomato On Wheat'
p348
aS'Pita with Chickpea, Spinach and Cukes'
p349
aS'Shoestring French Fries'
p350
aS'Creamy Coleslaw'
p351
aS'Oatmeal Cranberry Cookie with Organic Ingredients'
p352
asS'Dinner'
p353
(lp354
S'Rosemary Lemon Whole Roast Chicken'
p355
aS'Penne With Herbed Zucchini'
p356
aS'Roasted Sweet Potatoes With Lime'
p357
aS'Garlic, Rosemary, Broccoli and Mushrooms'
p358
aS'Peach and Tomato Salad'
p359
aS'Cucumber Fennel and Watermelon Salad'
p360
asssS'2012-08-30'
p361
(dp362
S'Saybrook'
p363
(dp364
S'Continental Breakfast'
p365
(lp366
S'Waffle Bar'
p367
aS'Orange Fiesta Coffee Ring'
p368
asS'Dinner'
p369
(lp370
S'Pork Loin with Peppers'
p371
aS'Eggplant Rollettes'
p372
aS'Penne With Herbed Zucchini'
p373
aS'Fresh Tomato and Mozzarella Focaccia'
p374
aS'Greek Bean Salad'
p375
aS"Dawn's Panzanella"
p376
aS'Golden Pound Cake'
p377
asS'Lunch'
p378
(lp379
S'Cream Of Roasted Butternut Squash Soup'
p380
aS'White Beans and Spinach Casserole'
p381
aS'Pesto Chicken Sandwich'
p382
aS'Orzo With Sundried Tomatoes'
p383
aS'Greek Bean Salad'
p384
aS"Dawn's Panzanella"
p385
assS'Marigolds'
p386
(dp387
S'Lunch'
p388
(lp389
S'Tomato Soup'
p390
aS'Caribbean Bean Bouillabaisse'
p391
aS'Home-Style All Beef Meatloaf'
p392
aS'Burger With Onion Rings and Aioli'
p393
aS'4 Cheese  Pizza'
p394
aS'Roasted Vegetables and Provolone Panini'
p395
aS'Thai Beef Lavash Wrap'
p396
aS'Chive and Parsley Mashed Potatoes'
p397
aS'Roasted Cauliflower with Indian Spices'
p398
asS'Dinner'
p399
(lp400
S'Tomato Soup'
p401
aS'Penne Ala Newburg'
p402
aS'Chicken Chow Mein'
p403
aS'Batter Fried Fresh Fish'
p404
aS'Sticky Rice'
p405
aS'Mixed Vegetables'
p406
assS'Morse'
p407
(dp408
S'Continental Breakfast'
p409
(lp410
S'Waffle Bar'
p411
aS'Orange Fiesta Coffee Ring'
p412
asS'Dinner'
p413
(lp414
S'Pork Loin with Peppers'
p415
aS'Eggplant Rollettes'
p416
aS'Penne With Herbed Zucchini'
p417
aS'Fresh Tomato and Mozzarella Focaccia'
p418
aS'Ham Pizza'
p419
aS'Olive Feta Pizza'
p420
aS'Cheese Pizza'
p421
aS'Greek Bean Salad'
p422
aS"Dawn's Panzanella"
p423
aS'Golden Pound Cake'
p424
asS'Lunch'
p425
(lp426
S'Cream Of Roasted Butternut Squash Soup'
p427
aS'Pesto Chicken Sandwich'
p428
aS'Steakhouse French Fries'
p429
aS'Ham Pizza'
p430
aS'Olive Feta Pizza'
p431
aS'Cheese Pizza'
p432
aS'Rigatoni'
p433
aS'Greek Bean Salad'
p434
aS"Dawn's Panzanella"
p435
assS'Hall of Graduate Studies'
p436
(dp437
S'Lunch'
p438
(lp439
S'Southern Pea and Sweet Potato Soup'
p440
aS'Chicken Noodle Soup'
p441
aS'Italian Chicken Breast Sandwich'
p442
aS'Penne Tuscan Style'
p443
aS'Sloppy Joe'
p444
aS'Home Fries'
p445
aS'Whole Fresh Green Beans'
p446
asS'Dinner'
p447
(lp448
S'Southern Pea and Sweet Potato Soup'
p449
aS'Georgia Baked Ham'
p450
aS"Hoppin' John"
p451
aS'Southern Fried Chicken'
p452
aS'Grits'
p453
aS'Collard Greens'
p454
aS'Golden Pound Cake'
p455
assS'Berkeley'
p456
(dp457
S'Continental Breakfast'
p458
(lp459
S'Waffle Bar'
p460
aS'Orange Fiesta Coffee Ring'
p461
asS'Dinner'
p462
(lp463
S'Pork Loin with Peppers'
p464
aS'Eggplant Rollettes'
p465
aS'Penne With Herbed Zucchini'
p466
aS'Fresh Tomato and Mozzarella Focaccia'
p467
aS'Greek Bean Salad'
p468
aS"Dawn's Panzanella"
p469
aS'Golden Pound Cake'
p470
asS'Lunch'
p471
(lp472
S'Cream Of Roasted Butternut Squash Soup'
p473
aS'White Beans and Spinach Casserole'
p474
aS'Pesto Chicken Sandwich'
p475
aS'Orzo With Sundried Tomatoes'
p476
aS'Greek Bean Salad'
p477
aS"Dawn's Panzanella"
p478
assS'Silliman'
p479
(dp480
S'Continental Breakfast'
p481
(lp482
S'Waffle Bar'
p483
aS'Orange Fiesta Coffee Ring'
p484
asS'Dinner'
p485
(lp486
S'Pork Loin with Peppers'
p487
aS'Eggplant Rollettes'
p488
aS'Penne With Herbed Zucchini'
p489
aS'Fresh Tomato and Mozzarella Focaccia'
p490
aS'Greek Bean Salad'
p491
aS"Dawn's Panzanella"
p492
aS'Golden Pound Cake'
p493
asS'Lunch'
p494
(lp495
S'Cream Of Roasted Butternut Squash Soup'
p496
aS'White Beans and Spinach Casserole'
p497
aS'Pesto Chicken Sandwich'
p498
aS'Orzo With Sundried Tomatoes'
p499
aS'Greek Bean Salad'
p500
aS"Dawn's Panzanella"
p501
assS'Calhoun'
p502
(dp503
S'Continental Breakfast'
p504
(lp505
S'Waffle Bar'
p506
aS'Orange Fiesta Coffee Ring'
p507
asS'Dinner'
p508
(lp509
S'Pork Loin with Peppers'
p510
aS'Eggplant Rollettes'
p511
aS'Penne With Herbed Zucchini'
p512
aS'Fresh Tomato and Mozzarella Focaccia'
p513
aS'Greek Bean Salad'
p514
aS"Dawn's Panzanella"
p515
aS'Golden Pound Cake'
p516
asS'Lunch'
p517
(lp518
S'Cream Of Roasted Butternut Squash Soup'
p519
aS'White Beans and Spinach Casserole'
p520
aS'Pesto Chicken Sandwich'
p521
aS'Orzo With Sundried Tomatoes'
p522
aS'Greek Bean Salad'
p523
aS"Dawn's Panzanella"
p524
assS'Commons'
p525
(dp526
S'Lunch'
p527
(lp528
S'Italian Sausage and Pasta Soup'
p529
aS'Corn Chowder'
p530
aS'Chili Con Carne'
p531
aS'Spaghetti'
p532
aS'Chicken Pesto Sandwich'
p533
aS'Tofu Teriyaki'
p534
aS'Pepperoni Pizza'
p535
aS'Cheese Pizza'
p536
aS'Broccoli Bianca Pizza'
p537
aS'Tofu Pad Thai'
p538
aS'Green Bean and Tofu'
p539
aS'Vegetable Fried Rice'
p540
aS'Jasmine Rice'
p541
aS"General Tso's Chicken"
p542
aS'BLAT Sandwich'
p543
aS'Cilantro Rice'
p544
aS'Fresh Corn On The Cob'
p545
aS"Dawn's Panzanella"
p546
asS'Breakfast'
p547
(lp548
S'Grits'
p549
aS'Cage-Free Scrambled Eggs'
p550
aS'Scrambled Egg Whites'
p551
aS'Waffle Bar'
p552
aS'Fried Egg and Cheese Sandwich'
p553
aS'Sausage Links'
p554
aS'Potato Pancakes'
p555
aS'Orange Fiesta Coffee Ring'
p556
assS'Stiles'
p557
(dp558
S'Continental Breakfast'
p559
(lp560
S'Waffle Bar'
p561
aS'Orange Fiesta Coffee Ring'
p562
asS'Dinner'
p563
(lp564
S'Pork Loin with Peppers'
p565
aS'Eggplant Rollettes'
p566
aS'Penne With Herbed Zucchini'
p567
aS'Fresh Tomato and Mozzarella Focaccia'
p568
aS'Ham Pizza'
p569
aS'Olive Feta Pizza'
p570
aS'Cheese Pizza'
p571
aS'Greek Bean Salad'
p572
aS"Dawn's Panzanella"
p573
aS'Golden Pound Cake'
p574
asS'Lunch'
p575
(lp576
S'Cream Of Roasted Butternut Squash Soup'
p577
aS'Pesto Chicken Sandwich'
p578
aS'Steakhouse French Fries'
p579
aS'Ham Pizza'
p580
aS'Olive Feta Pizza'
p581
aS'Cheese Pizza'
p582
aS'Rigatoni'
p583
aS'Greek Bean Salad'
p584
aS"Dawn's Panzanella"
p585
assS'Branford'
p586
(dp587
S'Continental Breakfast'
p588
(lp589
S'Waffle Bar'
p590
aS'Orange Fiesta Coffee Ring'
p591
asS'Dinner'
p592
(lp593
S'Pork Loin with Peppers'
p594
aS'Eggplant Rollettes'
p595
aS'Penne With Herbed Zucchini'
p596
aS'Fresh Tomato and Mozzarella Focaccia'
p597
aS'Greek Bean Salad'
p598
aS"Dawn's Panzanella"
p599
aS'Golden Pound Cake'
p600
asS'Lunch'
p601
(lp602
S'Cream Of Roasted Butternut Squash Soup'
p603
aS'White Beans and Spinach Casserole'
p604
aS'Pesto Chicken Sandwich'
p605
aS'Orzo With Sundried Tomatoes'
p606
aS'Greek Bean Salad'
p607
aS"Dawn's Panzanella"
p608
assS'Pierson'
p609
(dp610
S'Continental Breakfast'
p611
(lp612
S'Waffle Bar'
p613
aS'Orange Fiesta Coffee Ring'
p614
asS'Dinner'
p615
(lp616
S'Pork Loin with Peppers'
p617
aS'Eggplant Rollettes'
p618
aS'Penne With Herbed Zucchini'
p619
aS'Fresh Tomato and Mozzarella Focaccia'
p620
aS'Greek Bean Salad'
p621
aS"Dawn's Panzanella"
p622
aS'Golden Pound Cake'
p623
asS'Lunch'
p624
(lp625
S'Cream Of Roasted Butternut Squash Soup'
p626
aS'White Beans and Spinach Casserole'
p627
aS'Pesto Chicken Sandwich'
p628
aS'Orzo With Sundried Tomatoes'
p629
aS'Greek Bean Salad'
p630
aS"Dawn's Panzanella"
p631
assS'Timothy Dwight'
p632
(dp633
S'Continental Breakfast'
p634
(lp635
S'Waffle Bar'
p636
aS'Orange Fiesta Coffee Ring'
p637
asS'Dinner'
p638
(lp639
S'Pork Loin with Peppers'
p640
aS'Eggplant Rollettes'
p641
aS'Penne With Herbed Zucchini'
p642
aS'Fresh Tomato and Mozzarella Focaccia'
p643
aS'Greek Bean Salad'
p644
aS"Dawn's Panzanella"
p645
aS'Golden Pound Cake'
p646
asS'Lunch'
p647
(lp648
S'Cream Of Roasted Butternut Squash Soup'
p649
aS'White Beans and Spinach Casserole'
p650
aS'Pesto Chicken Sandwich'
p651
aS'Orzo With Sundried Tomatoes'
p652
aS'Greek Bean Salad'
p653
aS"Dawn's Panzanella"
p654
assS'Trumbull'
p655
(dp656
S'Continental Breakfast'
p657
(lp658
S'Waffle Bar'
p659
aS'Orange Fiesta Coffee Ring'
p660
asS'Dinner'
p661
(lp662
S'Pork Loin with Peppers'
p663
aS'Eggplant Rollettes'
p664
aS'Penne With Herbed Zucchini'
p665
aS'Fresh Tomato and Mozzarella Focaccia'
p666
aS'Greek Bean Salad'
p667
aS"Dawn's Panzanella"
p668
aS'Golden Pound Cake'
p669
asS'Lunch'
p670
(lp671
S'Cream Of Roasted Butternut Squash Soup'
p672
aS'White Beans and Spinach Casserole'
p673
aS'Pesto Chicken Sandwich'
p674
aS'Orzo With Sundried Tomatoes'
p675
aS'Greek Bean Salad'
p676
aS"Dawn's Panzanella"
p677
assS'Davenport'
p678
(dp679
S'Continental Breakfast'
p680
(lp681
S'Waffle Bar'
p682
aS'Orange Fiesta Coffee Ring'
p683
asS'Dinner'
p684
(lp685
S'Pork Loin with Peppers'
p686
aS'Eggplant Rollettes'
p687
aS'Penne With Herbed Zucchini'
p688
aS'Fresh Tomato and Mozzarella Focaccia'
p689
aS'Greek Bean Salad'
p690
aS"Dawn's Panzanella"
p691
aS'Golden Pound Cake'
p692
asS'Lunch'
p693
(lp694
S'Cream Of Roasted Butternut Squash Soup'
p695
aS'White Beans and Spinach Casserole'
p696
aS'Pesto Chicken Sandwich'
p697
aS'Orzo With Sundried Tomatoes'
p698
aS'Greek Bean Salad'
p699
aS"Dawn's Panzanella"
p700
assS'Jonathan Edwards'
p701
(dp702
S'Continental Breakfast'
p703
(lp704
S'Waffle Bar'
p705
aS'Orange Fiesta Coffee Ring'
p706
asS'Dinner'
p707
(lp708
S'Pork Loin with Peppers'
p709
aS'Eggplant Rollettes'
p710
aS'Penne With Herbed Zucchini'
p711
aS'Fresh Tomato and Mozzarella Focaccia'
p712
aS'Greek Bean Salad'
p713
aS"Dawn's Panzanella"
p714
aS'Golden Pound Cake'
p715
asS'Lunch'
p716
(lp717
S'Cream Of Roasted Butternut Squash Soup'
p718
aS'White Beans and Spinach Casserole'
p719
aS'Pesto Chicken Sandwich'
p720
aS'Orzo With Sundried Tomatoes'
p721
aS'Greek Bean Salad'
p722
aS"Dawn's Panzanella"
p723
asss.