(lp0
S'4 Cheese  Pizza'
p1
aS'BLAT Sandwich'
p2
aS'Batter Fried Fresh Fish'
p3
aS'Broccoli Bianca Pizza'
p4
aS'Burger With Onion Rings and Aioli'
p5
aS'Cage-Free Scrambled Eggs'
p6
aS'Caribbean Bean Bouillabaisse'
p7
aS'Cheese Pizza'
p8
aS'Chicken Chow Mein'
p9
aS'Chicken Noodle Soup'
p10
aS'Chicken Pesto Sandwich'
p11
aS'Chili Con Carne'
p12
aS'Chive and Parsley Mashed Potatoes'
p13
aS'Cilantro Rice'
p14
aS'Collard Greens'
p15
aS'Corn Chowder'
p16
aS'Cream Of Roasted Butternut Squash Soup'
p17
aS"Dawn's Panzanella"
p18
aS'Eggplant Rollettes'
p19
aS'Fresh Corn On The Cob'
p20
aS'Fresh Tomato and Mozzarella Focaccia'
p21
aS'Fried Egg and Cheese Sandwich'
p22
aS"General Tso's Chicken"
p23
aS'Georgia Baked Ham'
p24
aS'Golden Pound Cake'
p25
aS'Greek Bean Salad'
p26
aS'Green Bean and Tofu'
p27
aS'Grits'
p28
aS'Ham Pizza'
p29
aS'Home Fries'
p30
aS'Home-Style All Beef Meatloaf'
p31
aS"Hoppin' John"
p32
aS'Italian Chicken Breast Sandwich'
p33
aS'Italian Sausage and Pasta Soup'
p34
aS'Jasmine Rice'
p35
aS'Mixed Vegetables'
p36
aS'Olive Feta Pizza'
p37
aS'Orange Fiesta Coffee Ring'
p38
aS'Orzo With Sundried Tomatoes'
p39
aS'Penne Ala Newburg'
p40
aS'Penne Tuscan Style'
p41
aS'Penne With Herbed Zucchini'
p42
aS'Pepperoni Pizza'
p43
aS'Pesto Chicken Sandwich'
p44
aS'Pork Loin with Peppers'
p45
aS'Potato Pancakes'
p46
aS'Rigatoni'
p47
aS'Roasted Cauliflower with Indian Spices'
p48
aS'Roasted Vegetables and Provolone Panini'
p49
aS'Sausage Links'
p50
aS'Scrambled Egg Whites'
p51
aS'Sloppy Joe'
p52
aS'Southern Fried Chicken'
p53
aS'Southern Pea and Sweet Potato Soup'
p54
aS'Spaghetti'
p55
aS'Steakhouse French Fries'
p56
aS'Sticky Rice'
p57
aS'Thai Beef Lavash Wrap'
p58
aS'Tofu Pad Thai'
p59
aS'Tofu Teriyaki'
p60
aS'Tomato Soup'
p61
aS'Vegetable Fried Rice'
p62
aS'Waffle Bar'
p63
aS'White Beans and Spinach Casserole'
p64
aS'Whole Fresh Green Beans'
p65
a.