(dp1
S'2012-08-30'
p2
(dp3
S'Saybrook'
p4
(dp5
S'Continental Breakfast'
p6
(lp7
S'Waffle Bar'
p8
aS'Orange Fiesta Coffee Ring'
p9
asS'Dinner'
p10
(lp11
S'Pork Loin with Peppers'
p12
aS'Eggplant Rollettes'
p13
aS'Penne With Herbed Zucchini'
p14
aS'Fresh Tomato and Mozzarella Focaccia'
p15
aS'Greek Bean Salad'
p16
aS"Dawn's Panzanella"
p17
aS'Golden Pound Cake'
p18
asS'Lunch'
p19
(lp20
S'Cream Of Roasted Butternut Squash Soup'
p21
aS'White Beans and Spinach Casserole'
p22
aS'Pesto Chicken Sandwich'
p23
aS'Orzo With Sundried Tomatoes'
p24
aS'Greek Bean Salad'
p25
aS"Dawn's Panzanella"
p26
assS'Marigolds'
p27
(dp28
S'Lunch'
p29
(lp30
S'Tomato Soup'
p31
aS'Caribbean Bean Bouillabaisse'
p32
aS'Home-Style All Beef Meatloaf'
p33
aS'Burger With Onion Rings and Aioli'
p34
aS'4 Cheese  Pizza'
p35
aS'Roasted Vegetables and Provolone Panini'
p36
aS'Thai Beef Lavash Wrap'
p37
aS'Chive and Parsley Mashed Potatoes'
p38
aS'Roasted Cauliflower with Indian Spices'
p39
asS'Dinner'
p40
(lp41
S'Tomato Soup'
p42
aS'Penne Ala Newburg'
p43
aS'Chicken Chow Mein'
p44
aS'Batter Fried Fresh Fish'
p45
aS'Sticky Rice'
p46
aS'Mixed Vegetables'
p47
assS'Morse'
p48
(dp49
S'Continental Breakfast'
p50
(lp51
S'Waffle Bar'
p52
aS'Orange Fiesta Coffee Ring'
p53
asS'Dinner'
p54
(lp55
S'Pork Loin with Peppers'
p56
aS'Eggplant Rollettes'
p57
aS'Penne With Herbed Zucchini'
p58
aS'Fresh Tomato and Mozzarella Focaccia'
p59
aS'Ham Pizza'
p60
aS'Olive Feta Pizza'
p61
aS'Cheese Pizza'
p62
aS'Greek Bean Salad'
p63
aS"Dawn's Panzanella"
p64
aS'Golden Pound Cake'
p65
asS'Lunch'
p66
(lp67
S'Cream Of Roasted Butternut Squash Soup'
p68
aS'Pesto Chicken Sandwich'
p69
aS'Steakhouse French Fries'
p70
aS'Ham Pizza'
p71
aS'Olive Feta Pizza'
p72
aS'Cheese Pizza'
p73
aS'Rigatoni'
p74
aS'Greek Bean Salad'
p75
aS"Dawn's Panzanella"
p76
assS'Hall of Graduate Studies'
p77
(dp78
S'Lunch'
p79
(lp80
S'Southern Pea and Sweet Potato Soup'
p81
aS'Chicken Noodle Soup'
p82
aS'Italian Chicken Breast Sandwich'
p83
aS'Penne Tuscan Style'
p84
aS'Sloppy Joe'
p85
aS'Home Fries'
p86
aS'Whole Fresh Green Beans'
p87
asS'Dinner'
p88
(lp89
S'Southern Pea and Sweet Potato Soup'
p90
aS'Georgia Baked Ham'
p91
aS"Hoppin' John"
p92
aS'Southern Fried Chicken'
p93
aS'Grits'
p94
aS'Collard Greens'
p95
aS'Golden Pound Cake'
p96
assS'Berkeley'
p97
(dp98
S'Continental Breakfast'
p99
(lp100
S'Waffle Bar'
p101
aS'Orange Fiesta Coffee Ring'
p102
asS'Dinner'
p103
(lp104
S'Pork Loin with Peppers'
p105
aS'Eggplant Rollettes'
p106
aS'Penne With Herbed Zucchini'
p107
aS'Fresh Tomato and Mozzarella Focaccia'
p108
aS'Greek Bean Salad'
p109
aS"Dawn's Panzanella"
p110
aS'Golden Pound Cake'
p111
asS'Lunch'
p112
(lp113
S'Cream Of Roasted Butternut Squash Soup'
p114
aS'White Beans and Spinach Casserole'
p115
aS'Pesto Chicken Sandwich'
p116
aS'Orzo With Sundried Tomatoes'
p117
aS'Greek Bean Salad'
p118
aS"Dawn's Panzanella"
p119
assS'Silliman'
p120
(dp121
S'Continental Breakfast'
p122
(lp123
S'Waffle Bar'
p124
aS'Orange Fiesta Coffee Ring'
p125
asS'Dinner'
p126
(lp127
S'Pork Loin with Peppers'
p128
aS'Eggplant Rollettes'
p129
aS'Penne With Herbed Zucchini'
p130
aS'Fresh Tomato and Mozzarella Focaccia'
p131
aS'Greek Bean Salad'
p132
aS"Dawn's Panzanella"
p133
aS'Golden Pound Cake'
p134
asS'Lunch'
p135
(lp136
S'Cream Of Roasted Butternut Squash Soup'
p137
aS'White Beans and Spinach Casserole'
p138
aS'Pesto Chicken Sandwich'
p139
aS'Orzo With Sundried Tomatoes'
p140
aS'Greek Bean Salad'
p141
aS"Dawn's Panzanella"
p142
assS'Calhoun'
p143
(dp144
S'Continental Breakfast'
p145
(lp146
S'Waffle Bar'
p147
aS'Orange Fiesta Coffee Ring'
p148
asS'Dinner'
p149
(lp150
S'Pork Loin with Peppers'
p151
aS'Eggplant Rollettes'
p152
aS'Penne With Herbed Zucchini'
p153
aS'Fresh Tomato and Mozzarella Focaccia'
p154
aS'Greek Bean Salad'
p155
aS"Dawn's Panzanella"
p156
aS'Golden Pound Cake'
p157
asS'Lunch'
p158
(lp159
S'Cream Of Roasted Butternut Squash Soup'
p160
aS'White Beans and Spinach Casserole'
p161
aS'Pesto Chicken Sandwich'
p162
aS'Orzo With Sundried Tomatoes'
p163
aS'Greek Bean Salad'
p164
aS"Dawn's Panzanella"
p165
assS'Commons'
p166
(dp167
S'Lunch'
p168
(lp169
S'Italian Sausage and Pasta Soup'
p170
aS'Corn Chowder'
p171
aS'Chili Con Carne'
p172
aS'Spaghetti'
p173
aS'Chicken Pesto Sandwich'
p174
aS'Tofu Teriyaki'
p175
aS'Pepperoni Pizza'
p176
aS'Cheese Pizza'
p177
aS'Broccoli Bianca Pizza'
p178
aS'Tofu Pad Thai'
p179
aS'Green Bean and Tofu'
p180
aS'Vegetable Fried Rice'
p181
aS'Jasmine Rice'
p182
aS"General Tso's Chicken"
p183
aS'BLAT Sandwich'
p184
aS'Cilantro Rice'
p185
aS'Fresh Corn On The Cob'
p186
aS"Dawn's Panzanella"
p187
asS'Breakfast'
p188
(lp189
S'Grits'
p190
aS'Cage-Free Scrambled Eggs'
p191
aS'Scrambled Egg Whites'
p192
aS'Waffle Bar'
p193
aS'Fried Egg and Cheese Sandwich'
p194
aS'Sausage Links'
p195
aS'Potato Pancakes'
p196
aS'Orange Fiesta Coffee Ring'
p197
assS'Stiles'
p198
(dp199
S'Continental Breakfast'
p200
(lp201
S'Waffle Bar'
p202
aS'Orange Fiesta Coffee Ring'
p203
asS'Dinner'
p204
(lp205
S'Pork Loin with Peppers'
p206
aS'Eggplant Rollettes'
p207
aS'Penne With Herbed Zucchini'
p208
aS'Fresh Tomato and Mozzarella Focaccia'
p209
aS'Ham Pizza'
p210
aS'Olive Feta Pizza'
p211
aS'Cheese Pizza'
p212
aS'Greek Bean Salad'
p213
aS"Dawn's Panzanella"
p214
aS'Golden Pound Cake'
p215
asS'Lunch'
p216
(lp217
S'Cream Of Roasted Butternut Squash Soup'
p218
aS'Pesto Chicken Sandwich'
p219
aS'Steakhouse French Fries'
p220
aS'Ham Pizza'
p221
aS'Olive Feta Pizza'
p222
aS'Cheese Pizza'
p223
aS'Rigatoni'
p224
aS'Greek Bean Salad'
p225
aS"Dawn's Panzanella"
p226
assS'Branford'
p227
(dp228
S'Continental Breakfast'
p229
(lp230
S'Waffle Bar'
p231
aS'Orange Fiesta Coffee Ring'
p232
asS'Dinner'
p233
(lp234
S'Pork Loin with Peppers'
p235
aS'Eggplant Rollettes'
p236
aS'Penne With Herbed Zucchini'
p237
aS'Fresh Tomato and Mozzarella Focaccia'
p238
aS'Greek Bean Salad'
p239
aS"Dawn's Panzanella"
p240
aS'Golden Pound Cake'
p241
asS'Lunch'
p242
(lp243
S'Cream Of Roasted Butternut Squash Soup'
p244
aS'White Beans and Spinach Casserole'
p245
aS'Pesto Chicken Sandwich'
p246
aS'Orzo With Sundried Tomatoes'
p247
aS'Greek Bean Salad'
p248
aS"Dawn's Panzanella"
p249
assS'Pierson'
p250
(dp251
S'Continental Breakfast'
p252
(lp253
S'Waffle Bar'
p254
aS'Orange Fiesta Coffee Ring'
p255
asS'Dinner'
p256
(lp257
S'Pork Loin with Peppers'
p258
aS'Eggplant Rollettes'
p259
aS'Penne With Herbed Zucchini'
p260
aS'Fresh Tomato and Mozzarella Focaccia'
p261
aS'Greek Bean Salad'
p262
aS"Dawn's Panzanella"
p263
aS'Golden Pound Cake'
p264
asS'Lunch'
p265
(lp266
S'Cream Of Roasted Butternut Squash Soup'
p267
aS'White Beans and Spinach Casserole'
p268
aS'Pesto Chicken Sandwich'
p269
aS'Orzo With Sundried Tomatoes'
p270
aS'Greek Bean Salad'
p271
aS"Dawn's Panzanella"
p272
assS'Timothy Dwight'
p273
(dp274
S'Continental Breakfast'
p275
(lp276
S'Waffle Bar'
p277
aS'Orange Fiesta Coffee Ring'
p278
asS'Dinner'
p279
(lp280
S'Pork Loin with Peppers'
p281
aS'Eggplant Rollettes'
p282
aS'Penne With Herbed Zucchini'
p283
aS'Fresh Tomato and Mozzarella Focaccia'
p284
aS'Greek Bean Salad'
p285
aS"Dawn's Panzanella"
p286
aS'Golden Pound Cake'
p287
asS'Lunch'
p288
(lp289
S'Cream Of Roasted Butternut Squash Soup'
p290
aS'White Beans and Spinach Casserole'
p291
aS'Pesto Chicken Sandwich'
p292
aS'Orzo With Sundried Tomatoes'
p293
aS'Greek Bean Salad'
p294
aS"Dawn's Panzanella"
p295
assS'Trumbull'
p296
(dp297
S'Continental Breakfast'
p298
(lp299
S'Waffle Bar'
p300
aS'Orange Fiesta Coffee Ring'
p301
asS'Dinner'
p302
(lp303
S'Pork Loin with Peppers'
p304
aS'Eggplant Rollettes'
p305
aS'Penne With Herbed Zucchini'
p306
aS'Fresh Tomato and Mozzarella Focaccia'
p307
aS'Greek Bean Salad'
p308
aS"Dawn's Panzanella"
p309
aS'Golden Pound Cake'
p310
asS'Lunch'
p311
(lp312
S'Cream Of Roasted Butternut Squash Soup'
p313
aS'White Beans and Spinach Casserole'
p314
aS'Pesto Chicken Sandwich'
p315
aS'Orzo With Sundried Tomatoes'
p316
aS'Greek Bean Salad'
p317
aS"Dawn's Panzanella"
p318
assS'Davenport'
p319
(dp320
S'Continental Breakfast'
p321
(lp322
S'Waffle Bar'
p323
aS'Orange Fiesta Coffee Ring'
p324
asS'Dinner'
p325
(lp326
S'Pork Loin with Peppers'
p327
aS'Eggplant Rollettes'
p328
aS'Penne With Herbed Zucchini'
p329
aS'Fresh Tomato and Mozzarella Focaccia'
p330
aS'Greek Bean Salad'
p331
aS"Dawn's Panzanella"
p332
aS'Golden Pound Cake'
p333
asS'Lunch'
p334
(lp335
S'Cream Of Roasted Butternut Squash Soup'
p336
aS'White Beans and Spinach Casserole'
p337
aS'Pesto Chicken Sandwich'
p338
aS'Orzo With Sundried Tomatoes'
p339
aS'Greek Bean Salad'
p340
aS"Dawn's Panzanella"
p341
assS'Jonathan Edwards'
p342
(dp343
S'Continental Breakfast'
p344
(lp345
S'Waffle Bar'
p346
aS'Orange Fiesta Coffee Ring'
p347
asS'Dinner'
p348
(lp349
S'Pork Loin with Peppers'
p350
aS'Eggplant Rollettes'
p351
aS'Penne With Herbed Zucchini'
p352
aS'Fresh Tomato and Mozzarella Focaccia'
p353
aS'Greek Bean Salad'
p354
aS"Dawn's Panzanella"
p355
aS'Golden Pound Cake'
p356
asS'Lunch'
p357
(lp358
S'Cream Of Roasted Butternut Squash Soup'
p359
aS'White Beans and Spinach Casserole'
p360
aS'Pesto Chicken Sandwich'
p361
aS'Orzo With Sundried Tomatoes'
p362
aS'Greek Bean Salad'
p363
aS"Dawn's Panzanella"
p364
asss.